; Function Attrs: nounwind uwtable
define void @Txs_ManStop(ptr noundef captures(none) %0) local_unnamed_addr #0 {
  %2 = load ptr, ptr %0, align 8, !tbaa !3
  tail call void @Gia_ManStop(ptr noundef %2) #14
  %3 = getelementptr inbounds nuw i8, ptr %0, i64 16
  %4 = load ptr, ptr %3, align 8, !tbaa !18
  %5 = getelementptr inbounds nuw i8, ptr %4, i64 8
  %6 = load ptr, ptr %5, align 8, !tbaa !17
  %.not.i = icmp eq ptr %6, null
  br i1 %.not.i, label %Vec_IntFree.exit, label %7

7:                                                ; preds = %1
  tail call void @free(ptr noundef nonnull %6) #14
  br label %Vec_IntFree.exit

Vec_IntFree.exit:                                 ; preds = %1, %7
  tail call void @free(ptr noundef nonnull %4) #14
  %8 = getelementptr inbounds nuw i8, ptr %0, i64 24
  %9 = load ptr, ptr %8, align 8, !tbaa !19
  %10 = getelementptr inbounds nuw i8, ptr %9, i64 8
  %11 = load ptr, ptr %10, align 8, !tbaa !17
  %.not.i11 = icmp eq ptr %11, null
  br i1 %.not.i11, label %Vec_IntFree.exit12, label %12

12:                                               ; preds = %Vec_IntFree.exit
  tail call void @free(ptr noundef nonnull %11) #14
  br label %Vec_IntFree.exit12

Vec_IntFree.exit12:                               ; preds = %Vec_IntFree.exit, %12
  tail call void @free(ptr noundef nonnull %9) #14
  %13 = getelementptr inbounds nuw i8, ptr %0, i64 32
  %14 = load ptr, ptr %13, align 8, !tbaa !20
  %15 = getelementptr inbounds nuw i8, ptr %14, i64 8
  %16 = load ptr, ptr %15, align 8, !tbaa !17
  %.not.i13 = icmp eq ptr %16, null
  br i1 %.not.i13, label %Vec_IntFree.exit14, label %17

17:                                               ; preds = %Vec_IntFree.exit12
  tail call void @free(ptr noundef nonnull %16) #14
  br label %Vec_IntFree.exit14

Vec_IntFree.exit14:                               ; preds = %Vec_IntFree.exit12, %17
  tail call void @free(ptr noundef nonnull %14) #14
  %18 = getelementptr inbounds nuw i8, ptr %0, i64 40
  %19 = load ptr, ptr %18, align 8, !tbaa !21
  %20 = getelementptr inbounds nuw i8, ptr %19, i64 8
  %21 = load ptr, ptr %20, align 8, !tbaa !17
  %.not.i15 = icmp eq ptr %21, null
  br i1 %.not.i15, label %Vec_IntFree.exit16, label %22

22:                                               ; preds = %Vec_IntFree.exit14
  tail call void @free(ptr noundef nonnull %21) #14
  br label %Vec_IntFree.exit16

Vec_IntFree.exit16:                               ; preds = %Vec_IntFree.exit14, %22
  tail call void @free(ptr noundef nonnull %19) #14
  %23 = getelementptr inbounds nuw i8, ptr %0, i64 48
  %24 = load ptr, ptr %23, align 8, !tbaa !22
  %25 = getelementptr inbounds nuw i8, ptr %24, i64 8
  %26 = load ptr, ptr %25, align 8, !tbaa !17
  %.not.i17 = icmp eq ptr %26, null
  br i1 %.not.i17, label %Vec_IntFree.exit18, label %27

27:                                               ; preds = %Vec_IntFree.exit16
  tail call void @free(ptr noundef nonnull %26) #14
  br label %Vec_IntFree.exit18

Vec_IntFree.exit18:                               ; preds = %Vec_IntFree.exit16, %27
  tail call void @free(ptr noundef nonnull %24) #14
  %28 = getelementptr inbounds nuw i8, ptr %0, i64 56
  %29 = load ptr, ptr %28, align 8, !tbaa !23
  %30 = getelementptr inbounds nuw i8, ptr %29, i64 8
  %31 = load ptr, ptr %30, align 8, !tbaa !17
  %.not.i19 = icmp eq ptr %31, null
  br i1 %.not.i19, label %Vec_IntFree.exit20, label %32

32:                                               ; preds = %Vec_IntFree.exit18
  tail call void @free(ptr noundef nonnull %31) #14
  br label %Vec_IntFree.exit20

Vec_IntFree.exit20:                               ; preds = %Vec_IntFree.exit18, %32
  tail call void @free(ptr noundef nonnull %29) #14
  %33 = getelementptr inbounds nuw i8, ptr %0, i64 64
  %34 = load ptr, ptr %33, align 8, !tbaa !24
  %35 = getelementptr inbounds nuw i8, ptr %34, i64 8
  %36 = load ptr, ptr %35, align 8, !tbaa !17
  %.not.i21 = icmp eq ptr %36, null
  br i1 %.not.i21, label %Vec_IntFree.exit22, label %37

37:                                               ; preds = %Vec_IntFree.exit20
  tail call void @free(ptr noundef nonnull %36) #14
  br label %Vec_IntFree.exit22

Vec_IntFree.exit22:                               ; preds = %Vec_IntFree.exit20, %37
  tail call void @free(ptr noundef nonnull %34) #14
  %38 = getelementptr inbounds nuw i8, ptr %0, i64 72
  %39 = load ptr, ptr %38, align 8, !tbaa !25
  %40 = getelementptr inbounds nuw i8, ptr %39, i64 8
  %41 = load ptr, ptr %40, align 8, !tbaa !17
  %.not.i23 = icmp eq ptr %41, null
  br i1 %.not.i23, label %Vec_IntFree.exit24, label %42

42:                                               ; preds = %Vec_IntFree.exit22
  tail call void @free(ptr noundef nonnull %41) #14
  br label %Vec_IntFree.exit24

Vec_IntFree.exit24:                               ; preds = %Vec_IntFree.exit22, %42
  tail call void @free(ptr noundef nonnull %39) #14
  tail call void @free(ptr noundef nonnull %0) #14
  ret void
}